target datalayout = "e-m:e-p270:32:32-p271:32:32-p272:64:64-i64:64-i128:128-f80:128-n8:16:32:64-S128"
target triple = "x86_64-pc-linux-gnu"

%struct.settings = type { i64, i32, i32, i32, ptr, i32, i32, i32, ptr, ptr, i32, double, i32, i32, i32, i8, i32, i32, i8, i32, i32, i32, i32, i32, i32, i8, i8, i8, i8, i8, i8, i8, i32, i32, double, double, i32, i32, i8, i32, i8, i8, ptr, i32, i32, i32, i32, double, double, i32, i8, i32, i32, i32, i32, i32, i8, i8, i8, ptr, i32, i32, i32, i32, i32, i32, i32, i32, i32, i32, double, i8, i32, i32, ptr, i32 }
%struct.conn = type { ptr, i32, i8, i8, i8, i8, i8, i8, i8, i8, ptr, i32, i32, i32, %struct.event, i16, i16, ptr, ptr, i32, i32, ptr, ptr, ptr, i32, ptr, i32, i32, i32, i32, i32, i32, i32, %struct.sockaddr_in6, i32, i8, %struct.anon.8, %union.protocol_binary_request_header, i64, i64, i16, i32, i32, ptr, ptr, ptr, ptr, ptr, ptr }
%struct.event = type { %struct.event_callback, %union.anon.0, i32, ptr, %union.anon.2, i16, i16, %struct.timeval }
%struct.event_callback = type { %struct.anon, i16, i8, i8, %union.anon, ptr }
%struct.anon = type { ptr, ptr }
%union.anon = type { ptr }
%union.anon.0 = type { %struct.anon.1 }
%struct.anon.1 = type { ptr, ptr }
%union.anon.2 = type { %struct.anon.3 }
%struct.anon.3 = type { %struct.anon.4, %struct.timeval }
%struct.anon.4 = type { ptr, ptr }
%struct.timeval = type { i64, i64 }
%struct.sockaddr_in6 = type { i16, i16, i32, %struct.in6_addr, i32 }
%struct.in6_addr = type { %union.anon.7 }
%union.anon.7 = type { [4 x i32] }
%struct.anon.8 = type { ptr, i64, i64 }
%union.protocol_binary_request_header = type { %struct.anon.9 }
%struct.anon.9 = type { i8, i8, i16, i8, i8, i16, i32, i32, i64 }
%struct.token_s = type { ptr, i64 }

@settings = external global %struct.settings, align 8
@.str.102 = private unnamed_addr constant [28 x i8] c"ERROR: shutdown not enabled\00", align 1
@.str.103 = private unnamed_addr constant [9 x i8] c"graceful\00", align 1
@.str.104 = private unnamed_addr constant [35 x i8] c"CLIENT_ERROR invalid shutdown mode\00", align 1

; Function Attrs: nounwind uwtable
define internal void @process_shutdown_command(ptr noundef %0, ptr noundef %1, i64 noundef %2) #0 {
  %4 = alloca ptr, align 8
  %5 = alloca ptr, align 8
  %6 = alloca i64, align 8
  store ptr %0, ptr %4, align 8, !tbaa !4
  store ptr %1, ptr %5, align 8, !tbaa !77
  store i64 %2, ptr %6, align 8, !tbaa !44
  %7 = load i8, ptr getelementptr inbounds nuw (%struct.settings, ptr @settings, i32 0, i32 38), align 8, !tbaa !135, !range !40, !noundef !41
  %8 = trunc i8 %7 to i1
  br i1 %8, label %11, label %9

9:                                                ; preds = %3
  %10 = load ptr, ptr %4, align 8, !tbaa !4
  call void @out_string(ptr noundef %10, ptr noundef @.str.102)
  br label %37

11:                                               ; preds = %3
  %12 = load i64, ptr %6, align 8, !tbaa !44
  %13 = icmp eq i64 %12, 2
  br i1 %13, label %14, label %19

14:                                               ; preds = %11
  %15 = load ptr, ptr %4, align 8, !tbaa !4
  %16 = getelementptr inbounds nuw %struct.conn, ptr %15, i32 0, i32 31
  store i32 3, ptr %16, align 4, !tbaa !136
  %17 = load ptr, ptr %4, align 8, !tbaa !4
  call void @conn_set_state(ptr noundef %17, i32 noundef 8)
  %18 = call i32 @raise(i32 noundef 2) #8
  br label %37

19:                                               ; preds = %11
  %20 = load i64, ptr %6, align 8, !tbaa !44
  %21 = icmp eq i64 %20, 3
  br i1 %21, label %22, label %34

22:                                               ; preds = %19
  %23 = load ptr, ptr %5, align 8, !tbaa !77
  %24 = getelementptr inbounds %struct.token_s, ptr %23, i64 1
  %25 = getelementptr inbounds nuw %struct.token_s, ptr %24, i32 0, i32 0
  %26 = load ptr, ptr %25, align 8, !tbaa !70
  %27 = call i32 @strcmp(ptr noundef %26, ptr noundef @.str.103) #9
  %28 = icmp eq i32 %27, 0
  br i1 %28, label %29, label %34

29:                                               ; preds = %22
  %30 = load ptr, ptr %4, align 8, !tbaa !4
  %31 = getelementptr inbounds nuw %struct.conn, ptr %30, i32 0, i32 31
  store i32 3, ptr %31, align 4, !tbaa !136
  %32 = load ptr, ptr %4, align 8, !tbaa !4
  call void @conn_set_state(ptr noundef %32, i32 noundef 8)
  %33 = call i32 @raise(i32 noundef 10) #8
  br label %36

34:                                               ; preds = %22, %19
  %35 = load ptr, ptr %4, align 8, !tbaa !4
  call void @out_string(ptr noundef %35, ptr noundef @.str.104)
  br label %36

36:                                               ; preds = %34, %29
  br label %37

37:                                               ; preds = %9, %36, %14
  ret void
}