; Function Attrs: nounwind uwtable
define internal fastcc void @process_shutdown_command(ptr noundef %0, ptr readonly captures(none) %.16.val, i64 noundef range(i64 2, 0) %1) unnamed_addr #0 {
  %3 = load i8, ptr getelementptr inbounds nuw (i8, ptr @settings, i64 176), align 8, !tbaa !124, !range !37, !noundef !38
  %4 = trunc nuw i8 %3 to i1
  br i1 %4, label %6, label %5

5:                                                ; preds = %2
  tail call void @out_string(ptr noundef %0, ptr noundef nonnull @.str.102) #13
  br label %17

6:                                                ; preds = %2
  switch i64 %1, label %16 [
    i64 2, label %7
    i64 3, label %10
  ]

7:                                                ; preds = %6
  %8 = getelementptr inbounds nuw i8, ptr %0, i64 268
  store i32 3, ptr %8, align 4, !tbaa !84
  tail call void @conn_set_state(ptr noundef %0, i32 noundef 8) #13
  %9 = tail call i32 @raise(i32 noundef 2) #13
  br label %17

10:                                               ; preds = %6
  %11 = tail call i32 @strcmp(ptr noundef nonnull dereferenceable(1) %.16.val, ptr noundef nonnull dereferenceable(9) @.str.103) #14
  %12 = icmp eq i32 %11, 0
  br i1 %12, label %13, label %16

13:                                               ; preds = %10
  %14 = getelementptr inbounds nuw i8, ptr %0, i64 268
  store i32 3, ptr %14, align 4, !tbaa !84
  tail call void @conn_set_state(ptr noundef %0, i32 noundef 8) #13
  %15 = tail call i32 @raise(i32 noundef 10) #13
  br label %17

16:                                               ; preds = %6, %10
  tail call void @out_string(ptr noundef %0, ptr noundef nonnull @.str.104) #13
  br label %17

17:                                               ; preds = %13, %16, %7, %5
  ret void
}